; ModuleID = 'source-C-CXX/60/601.c'
source_filename = "source-C-CXX/60/601.c"
target datalayout = "e-m:e-p270:32:32-p271:32:32-p272:64:64-i64:64-f80:128-n8:16:32:64-S128"
target triple = "x86_64-pc-linux-gnu"

@.str = private unnamed_addr constant [3 x i8] c"%d\00", align 1
@.str.1 = private unnamed_addr constant [4 x i8] c"%d\0A\00", align 1

; Function Attrs: nofree nounwind sspstrong uwtable
define dso_local i32 @main() local_unnamed_addr #0 {
  %1 = alloca i32, align 4
  %2 = alloca i32, align 4
  %3 = bitcast i32* %1 to i8*
  call void @llvm.lifetime.start.p0i8(i64 4, i8* nonnull %3) #3
  %4 = bitcast i32* %2 to i8*
  call void @llvm.lifetime.start.p0i8(i64 4, i8* nonnull %4) #3
  %5 = call i32 (i8*, ...) @__isoc99_scanf(i8* getelementptr inbounds ([3 x i8], [3 x i8]* @.str, i64 0, i64 0), i32* nonnull %1)
  %6 = load i32, i32* %1, align 4, !tbaa !5
  %7 = icmp slt i32 %6, 1
  br i1 %7, label %52, label %8

8:                                                ; preds = %0, %46
  %9 = phi i32 [ %49, %46 ], [ 1, %0 ]
  %10 = call i32 (i8*, ...) @__isoc99_scanf(i8* getelementptr inbounds ([3 x i8], [3 x i8]* @.str, i64 0, i64 0), i32* nonnull %2)
  %11 = load i32, i32* %2, align 4, !tbaa !5
  %12 = icmp sgt i32 %11, 1
  br i1 %12, label %13, label %46

13:                                               ; preds = %8
  %14 = add i32 %11, -1
  %15 = add i32 %11, -2
  %16 = and i32 %14, 7
  %17 = icmp ult i32 %15, 7
  br i1 %17, label %34, label %18

18:                                               ; preds = %13
  %19 = and i32 %14, -8
  br label %20

20:                                               ; preds = %20, %18
  %21 = phi i32 [ 1, %18 ], [ %31, %20 ]
  %22 = phi i32 [ 1, %18 ], [ %30, %20 ]
  %23 = phi i32 [ %19, %18 ], [ %32, %20 ]
  %24 = add nsw i32 %21, %22
  %25 = add nsw i32 %24, %21
  %26 = add nsw i32 %25, %24
  %27 = add nsw i32 %26, %25
  %28 = add nsw i32 %27, %26
  %29 = add nsw i32 %28, %27
  %30 = add nsw i32 %29, %28
  %31 = add nsw i32 %30, %29
  %32 = add i32 %23, -8
  %33 = icmp eq i32 %32, 0
  br i1 %33, label %34, label %20, !llvm.loop !9

34:                                               ; preds = %20, %13
  %35 = phi i32 [ undef, %13 ], [ %30, %20 ]
  %36 = phi i32 [ 1, %13 ], [ %31, %20 ]
  %37 = phi i32 [ 1, %13 ], [ %30, %20 ]
  %38 = icmp eq i32 %16, 0
  br i1 %38, label %46, label %39

39:                                               ; preds = %34, %39
  %40 = phi i32 [ %43, %39 ], [ %36, %34 ]
  %41 = phi i32 [ %40, %39 ], [ %37, %34 ]
  %42 = phi i32 [ %44, %39 ], [ %16, %34 ]
  %43 = add nsw i32 %40, %41
  %44 = add i32 %42, -1
  %45 = icmp eq i32 %44, 0
  br i1 %45, label %46, label %39, !llvm.loop !11

46:                                               ; preds = %34, %39, %8
  %47 = phi i32 [ 1, %8 ], [ %35, %34 ], [ %40, %39 ]
  %48 = call i32 (i8*, ...) @printf(i8* nonnull dereferenceable(1) getelementptr inbounds ([4 x i8], [4 x i8]* @.str.1, i64 0, i64 0), i32 %47)
  %49 = add nuw nsw i32 %9, 1
  %50 = load i32, i32* %1, align 4, !tbaa !5
  %51 = icmp slt i32 %9, %50
  br i1 %51, label %8, label %52, !llvm.loop !13

52:                                               ; preds = %46, %0
  call void @llvm.lifetime.end.p0i8(i64 4, i8* nonnull %4) #3
  call void @llvm.lifetime.end.p0i8(i64 4, i8* nonnull %3) #3
  ret i32 0
}

; Function Attrs: argmemonly mustprogress nofree nosync nounwind willreturn
declare void @llvm.lifetime.start.p0i8(i64 immarg, i8* nocapture) #1

; Function Attrs: nofree nounwind
declare noundef i32 @__isoc99_scanf(i8* nocapture noundef readonly, ...) local_unnamed_addr #2

; Function Attrs: nofree nounwind
declare noundef i32 @printf(i8* nocapture noundef readonly, ...) local_unnamed_addr #2

; Function Attrs: argmemonly mustprogress nofree nosync nounwind willreturn
declare void @llvm.lifetime.end.p0i8(i64 immarg, i8* nocapture) #1


!llvm.module.flags = !{!0, !1, !2, !3}
!llvm.ident = !{!4}

!0 = !{i32 1, !"wchar_size", i32 4}
!1 = !{i32 7, !"PIC Level", i32 2}
!2 = !{i32 7, !"PIE Level", i32 2}
!3 = !{i32 7, !"uwtable", i32 1}
!4 = !{!"clang version 13.0.0"}
!5 = !{!6, !6, i64 0}
!6 = !{!"int", !7, i64 0}
!7 = !{!"omnipotent char", !8, i64 0}
!8 = !{!"Simple C/C++ TBAA"}
!9 = distinct !{!9, !10}
!10 = !{!"llvm.loop.mustprogress"}
!11 = distinct !{!11, !12}
!12 = !{!"llvm.loop.unroll.disable"}
!13 = distinct !{!13, !10}
